; Function Attrs: mustprogress nounwind uwtable
define internal fastcc void @_ZN12_GLOBAL__N_111ProfileNodeclIN4llvm16itanium_demangle15ConditionalExprEEEvPKT_(ptr nonnull %.0.val, ptr noundef nonnull readonly captures(none) %0) unnamed_addr #0 align 2 {
  %2 = getelementptr inbounds nuw i8, ptr %0, i64 16
  %3 = load ptr, ptr %2, align 8
  %4 = getelementptr inbounds nuw i8, ptr %0, i64 24
  %5 = load ptr, ptr %4, align 8
  %6 = getelementptr inbounds nuw i8, ptr %0, i64 32
  %7 = load ptr, ptr %6, align 8
  %8 = getelementptr inbounds nuw i8, ptr %0, i64 9
  %9 = load i16, ptr %8, align 1
  %10 = shl i16 %9, 10
  %11 = ashr exact i16 %10, 10
  tail call void @_ZN4llvm16FoldingSetNodeID10AddIntegerEy(ptr noundef nonnull align 8 dereferenceable(144) %.0.val, i64 noundef 57)
  %12 = ptrtoint ptr %3 to i64
  tail call void @_ZN4llvm16FoldingSetNodeID10AddIntegerEy(ptr noundef nonnull align 8 dereferenceable(144) %.0.val, i64 noundef %12)
  %13 = ptrtoint ptr %5 to i64
  tail call void @_ZN4llvm16FoldingSetNodeID10AddIntegerEy(ptr noundef nonnull align 8 dereferenceable(144) %.0.val, i64 noundef %13)
  %14 = ptrtoint ptr %7 to i64
  tail call void @_ZN4llvm16FoldingSetNodeID10AddIntegerEy(ptr noundef nonnull align 8 dereferenceable(144) %.0.val, i64 noundef %14)
  %15 = sext i16 %11 to i64
  tail call void @_ZN4llvm16FoldingSetNodeID10AddIntegerEy(ptr noundef nonnull align 8 dereferenceable(144) %.0.val, i64 noundef %15)
  ret void
}